; ModuleID = 'source-C-CXX/39/1674.c'
source_filename = "source-C-CXX/39/1674.c"
target datalayout = "e-m:e-p270:32:32-p271:32:32-p272:64:64-i64:64-f80:128-n8:16:32:64-S128"
target triple = "x86_64-pc-linux-gnu"

@.str = private unnamed_addr constant [16 x i8] c"%lf%lf%lf%lf%lf\00", align 1
@.str.2 = private unnamed_addr constant [6 x i8] c"%.4lf\00", align 1

; Function Attrs: nofree nounwind sspstrong uwtable
define dso_local i32 @main() local_unnamed_addr #0 {
  %1 = alloca double, align 8
  %2 = alloca double, align 8
  %3 = alloca double, align 8
  %4 = alloca double, align 8
  %5 = alloca double, align 8
  %6 = bitcast double* %1 to i8*
  call void @llvm.lifetime.start.p0i8(i64 8, i8* nonnull %6) #4
  %7 = bitcast double* %2 to i8*
  call void @llvm.lifetime.start.p0i8(i64 8, i8* nonnull %7) #4
  %8 = bitcast double* %3 to i8*
  call void @llvm.lifetime.start.p0i8(i64 8, i8* nonnull %8) #4
  %9 = bitcast double* %4 to i8*
  call void @llvm.lifetime.start.p0i8(i64 8, i8* nonnull %9) #4
  %10 = bitcast double* %5 to i8*
  call void @llvm.lifetime.start.p0i8(i64 8, i8* nonnull %10) #4
  %11 = call i32 (i8*, ...) @__isoc99_scanf(i8* getelementptr inbounds ([16 x i8], [16 x i8]* @.str, i64 0, i64 0), double* nonnull %1, double* nonnull %2, double* nonnull %3, double* nonnull %4, double* nonnull %5)
  %12 = load double, double* %5, align 8, !tbaa !5
  %13 = fmul double %12, 5.000000e-01
  %14 = fmul double %13, 1.000000e+02
  %15 = fdiv double %14, 1.800000e+02
  %16 = fcmp oeq double %15, 0xFFF0000000000000
  %17 = fcmp oeq double %15, 0x7FF0000000000000
  %18 = or i1 %17, %16
  br i1 %18, label %19, label %25, !prof !9

19:                                               ; preds = %0
  %20 = call double @cos(double %15) #4
  %21 = load double, double* %5, align 8, !tbaa !5
  %22 = fmul double %21, 5.000000e-01
  %23 = fmul double %22, 1.000000e+02
  %24 = fdiv double %23, 1.800000e+02
  br label %25

25:                                               ; preds = %0, %19
  %26 = phi double [ %15, %0 ], [ %24, %19 ]
  %27 = fcmp oeq double %26, 0xFFF0000000000000
  %28 = fcmp oeq double %26, 0x7FF0000000000000
  %29 = or i1 %28, %27
  br i1 %29, label %30, label %32, !prof !9

30:                                               ; preds = %25
  %31 = call double @cos(double %26) #4
  br label %32

32:                                               ; preds = %25, %30
  %33 = call double @sqrt(double 0x7FF8000000000000) #4
  %34 = load double, double* %5, align 8, !tbaa !5
  %35 = fmul double %34, 5.000000e-01
  %36 = fmul double %35, 1.000000e+02
  %37 = fdiv double %36, 1.800000e+02
  %38 = fcmp oeq double %37, 0xFFF0000000000000
  %39 = fcmp oeq double %37, 0x7FF0000000000000
  %40 = or i1 %39, %38
  br i1 %40, label %41, label %47, !prof !9

41:                                               ; preds = %32
  %42 = call double @cos(double %37) #4
  %43 = load double, double* %5, align 8, !tbaa !5
  %44 = fmul double %43, 5.000000e-01
  %45 = fmul double %44, 1.000000e+02
  %46 = fdiv double %45, 1.800000e+02
  br label %47

47:                                               ; preds = %32, %41
  %48 = phi double [ %37, %32 ], [ %46, %41 ]
  %49 = fcmp oeq double %48, 0xFFF0000000000000
  %50 = fcmp oeq double %48, 0x7FF0000000000000
  %51 = or i1 %50, %49
  br i1 %51, label %52, label %54, !prof !9

52:                                               ; preds = %47
  %53 = call double @cos(double %48) #4
  br label %54

54:                                               ; preds = %47, %52
  %55 = call i32 (i8*, ...) @printf(i8* nonnull dereferenceable(1) getelementptr inbounds ([6 x i8], [6 x i8]* @.str.2, i64 0, i64 0), double %33)
  call void @llvm.lifetime.end.p0i8(i64 8, i8* nonnull %10) #4
  call void @llvm.lifetime.end.p0i8(i64 8, i8* nonnull %9) #4
  call void @llvm.lifetime.end.p0i8(i64 8, i8* nonnull %8) #4
  call void @llvm.lifetime.end.p0i8(i64 8, i8* nonnull %7) #4
  call void @llvm.lifetime.end.p0i8(i64 8, i8* nonnull %6) #4
  ret i32 0
}

; Function Attrs: argmemonly mustprogress nofree nosync nounwind willreturn
declare void @llvm.lifetime.start.p0i8(i64 immarg, i8* nocapture) #1

; Function Attrs: nofree nounwind
declare noundef i32 @__isoc99_scanf(i8* nocapture noundef readonly, ...) local_unnamed_addr #2

; Function Attrs: mustprogress nofree nounwind willreturn
declare double @sqrt(double) local_unnamed_addr #3

; Function Attrs: mustprogress nofree nounwind willreturn
declare double @cos(double) local_unnamed_addr #3

; Function Attrs: nofree nounwind
declare noundef i32 @printf(i8* nocapture noundef readonly, ...) local_unnamed_addr #2

; Function Attrs: argmemonly mustprogress nofree nosync nounwind willreturn
declare void @llvm.lifetime.end.p0i8(i64 immarg, i8* nocapture) #1


!llvm.module.flags = !{!0, !1, !2, !3}
!llvm.ident = !{!4}

!0 = !{i32 1, !"wchar_size", i32 4}
!1 = !{i32 7, !"PIC Level", i32 2}
!2 = !{i32 7, !"PIE Level", i32 2}
!3 = !{i32 7, !"uwtable", i32 1}
!4 = !{!"clang version 13.0.0"}
!5 = !{!6, !6, i64 0}
!6 = !{!"double", !7, i64 0}
!7 = !{!"omnipotent char", !8, i64 0}
!8 = !{!"Simple C/C++ TBAA"}
!9 = !{!"branch_weights", i32 1, i32 2000}
